target datalayout = "e-m:e-p270:32:32-p271:32:32-p272:64:64-i64:64-i128:128-f80:128-n8:16:32:64-S128"
target triple = "x86_64-pc-linux-gnu"

%struct.stbtt__hheap = type { ptr, ptr, i32 }
%struct.stbtt__hheap_chunk = type { ptr }
%struct.stbtt__edge = type { float, float, float, float, i32 }
%struct.stbtt__active_edge = type { ptr, float, float, float, float, float, float }

; Function Attrs: nounwind uwtable
define ptr @stbtt__hheap_alloc(ptr noundef %0, i64 noundef %1, ptr noundef %2) #0 {
  %4 = alloca ptr, align 8
  %5 = alloca ptr, align 8
  %6 = alloca i64, align 8
  %7 = alloca ptr, align 8
  %8 = alloca ptr, align 8
  %9 = alloca i32, align 4
  %10 = alloca ptr, align 8
  %11 = alloca i32, align 4
  store ptr %0, ptr %5, align 8, !tbaa !104
  store i64 %1, ptr %6, align 8, !tbaa !17
  store ptr %2, ptr %7, align 8, !tbaa !3
  %12 = load ptr, ptr %5, align 8, !tbaa !104
  %13 = getelementptr inbounds nuw %struct.stbtt__hheap, ptr %12, i32 0, i32 1
  %14 = load ptr, ptr %13, align 8, !tbaa !106
  %15 = icmp ne ptr %14, null
  br i1 %15, label %16, label %25

16:                                               ; preds = %3
  call void @llvm.lifetime.start.p0(i64 8, ptr %8) #8
  %17 = load ptr, ptr %5, align 8, !tbaa !104
  %18 = getelementptr inbounds nuw %struct.stbtt__hheap, ptr %17, i32 0, i32 1
  %19 = load ptr, ptr %18, align 8, !tbaa !106
  store ptr %19, ptr %8, align 8, !tbaa !3
  %20 = load ptr, ptr %8, align 8, !tbaa !3
  %21 = load ptr, ptr %20, align 8, !tbaa !3
  %22 = load ptr, ptr %5, align 8, !tbaa !104
  %23 = getelementptr inbounds nuw %struct.stbtt__hheap, ptr %22, i32 0, i32 1
  store ptr %21, ptr %23, align 8, !tbaa !106
  %24 = load ptr, ptr %8, align 8, !tbaa !3
  store ptr %24, ptr %4, align 8
  call void @llvm.lifetime.end.p0(i64 8, ptr %8) #8
  br label %80

25:                                               ; preds = %3
  %26 = load ptr, ptr %5, align 8, !tbaa !104
  %27 = getelementptr inbounds nuw %struct.stbtt__hheap, ptr %26, i32 0, i32 2
  %28 = load i32, ptr %27, align 8, !tbaa !109
  %29 = icmp eq i32 %28, 0
  br i1 %29, label %30, label %64

30:                                               ; preds = %25
  call void @llvm.lifetime.start.p0(i64 4, ptr %9) #8
  %31 = load i64, ptr %6, align 8, !tbaa !17
  %32 = icmp ult i64 %31, 32
  br i1 %32, label %33, label %34

33:                                               ; preds = %30
  br label %38

34:                                               ; preds = %30
  %35 = load i64, ptr %6, align 8, !tbaa !17
  %36 = icmp ult i64 %35, 128
  %37 = select i1 %36, i32 800, i32 100
  br label %38

38:                                               ; preds = %34, %33
  %39 = phi i32 [ 2000, %33 ], [ %37, %34 ]
  store i32 %39, ptr %9, align 4, !tbaa !14
  call void @llvm.lifetime.start.p0(i64 8, ptr %10) #8
  %40 = load i64, ptr %6, align 8, !tbaa !17
  %41 = load i32, ptr %9, align 4, !tbaa !14
  %42 = sext i32 %41 to i64
  %43 = mul i64 %40, %42
  %44 = add i64 8, %43
  %45 = call noalias ptr @malloc(i64 noundef %44) #9
  store ptr %45, ptr %10, align 8, !tbaa !110
  %46 = load ptr, ptr %10, align 8, !tbaa !110
  %47 = icmp eq ptr %46, null
  br i1 %47, label %48, label %49

48:                                               ; preds = %38
  store ptr null, ptr %4, align 8
  store i32 1, ptr %11, align 4
  br label %61

49:                                               ; preds = %38
  %50 = load ptr, ptr %5, align 8, !tbaa !104
  %51 = getelementptr inbounds nuw %struct.stbtt__hheap, ptr %50, i32 0, i32 0
  %52 = load ptr, ptr %51, align 8, !tbaa !111
  %53 = load ptr, ptr %10, align 8, !tbaa !110
  %54 = getelementptr inbounds nuw %struct.stbtt__hheap_chunk, ptr %53, i32 0, i32 0
  store ptr %52, ptr %54, align 8, !tbaa !112
  %55 = load ptr, ptr %10, align 8, !tbaa !110
  %56 = load ptr, ptr %5, align 8, !tbaa !104
  %57 = getelementptr inbounds nuw %struct.stbtt__hheap, ptr %56, i32 0, i32 0
  store ptr %55, ptr %57, align 8, !tbaa !111
  %58 = load i32, ptr %9, align 4, !tbaa !14
  %59 = load ptr, ptr %5, align 8, !tbaa !104
  %60 = getelementptr inbounds nuw %struct.stbtt__hheap, ptr %59, i32 0, i32 2
  store i32 %58, ptr %60, align 8, !tbaa !109
  store i32 0, ptr %11, align 4
  br label %61

61:                                               ; preds = %49, %48
  call void @llvm.lifetime.end.p0(i64 8, ptr %10) #8
  call void @llvm.lifetime.end.p0(i64 4, ptr %9) #8
  %62 = load i32, ptr %11, align 4
  switch i32 %62, label %82 [
    i32 0, label %63
    i32 1, label %80
  ]

63:                                               ; preds = %61
  br label %64

64:                                               ; preds = %63, %25
  %65 = load ptr, ptr %5, align 8, !tbaa !104
  %66 = getelementptr inbounds nuw %struct.stbtt__hheap, ptr %65, i32 0, i32 2
  %67 = load i32, ptr %66, align 8, !tbaa !109
  %68 = add nsw i32 %67, -1
  store i32 %68, ptr %66, align 8, !tbaa !109
  %69 = load ptr, ptr %5, align 8, !tbaa !104
  %70 = getelementptr inbounds nuw %struct.stbtt__hheap, ptr %69, i32 0, i32 0
  %71 = load ptr, ptr %70, align 8, !tbaa !111
  %72 = getelementptr inbounds nuw i8, ptr %71, i64 8
  %73 = load i64, ptr %6, align 8, !tbaa !17
  %74 = load ptr, ptr %5, align 8, !tbaa !104
  %75 = getelementptr inbounds nuw %struct.stbtt__hheap, ptr %74, i32 0, i32 2
  %76 = load i32, ptr %75, align 8, !tbaa !109
  %77 = sext i32 %76 to i64
  %78 = mul i64 %73, %77
  %79 = getelementptr inbounds nuw i8, ptr %72, i64 %78
  store ptr %79, ptr %4, align 8
  br label %80

80:                                               ; preds = %64, %61, %16
  %81 = load ptr, ptr %4, align 8
  ret ptr %81

82:                                               ; preds = %61
  unreachable
}

; Function Attrs: nounwind uwtable
define ptr @stbtt__new_active(ptr noundef %0, ptr noundef %1, i32 noundef %2, float noundef %3, ptr noundef %4) #0 {
  %6 = alloca ptr, align 8
  %7 = alloca ptr, align 8
  %8 = alloca ptr, align 8
  %9 = alloca i32, align 4
  %10 = alloca float, align 4
  %11 = alloca ptr, align 8
  %12 = alloca ptr, align 8
  %13 = alloca float, align 4
  %14 = alloca i32, align 4
  store ptr %0, ptr %7, align 8, !tbaa !104
  store ptr %1, ptr %8, align 8, !tbaa !115
  store i32 %2, ptr %9, align 4, !tbaa !14
  store float %3, ptr %10, align 4, !tbaa !67
  store ptr %4, ptr %11, align 8, !tbaa !3
  call void @llvm.lifetime.start.p0(i64 8, ptr %12) #8
  %15 = load ptr, ptr %7, align 8, !tbaa !104
  %16 = load ptr, ptr %11, align 8, !tbaa !3
  %17 = call ptr @stbtt__hheap_alloc(ptr noundef %15, i64 noundef 32, ptr noundef %16)
  store ptr %17, ptr %12, align 8, !tbaa !117
  call void @llvm.lifetime.start.p0(i64 4, ptr %13) #8
  %18 = load ptr, ptr %8, align 8, !tbaa !115
  %19 = getelementptr inbounds nuw %struct.stbtt__edge, ptr %18, i32 0, i32 2
  %20 = load float, ptr %19, align 4, !tbaa !119
  %21 = load ptr, ptr %8, align 8, !tbaa !115
  %22 = getelementptr inbounds nuw %struct.stbtt__edge, ptr %21, i32 0, i32 0
  %23 = load float, ptr %22, align 4, !tbaa !121
  %24 = fsub float %20, %23
  %25 = load ptr, ptr %8, align 8, !tbaa !115
  %26 = getelementptr inbounds nuw %struct.stbtt__edge, ptr %25, i32 0, i32 3
  %27 = load float, ptr %26, align 4, !tbaa !122
  %28 = load ptr, ptr %8, align 8, !tbaa !115
  %29 = getelementptr inbounds nuw %struct.stbtt__edge, ptr %28, i32 0, i32 1
  %30 = load float, ptr %29, align 4, !tbaa !123
  %31 = fsub float %27, %30
  %32 = fdiv float %24, %31
  store float %32, ptr %13, align 4, !tbaa !67
  %33 = load ptr, ptr %12, align 8, !tbaa !117
  %34 = icmp ne ptr %33, null
  br i1 %34, label %37, label %35

35:                                               ; preds = %5
  %36 = load ptr, ptr %12, align 8, !tbaa !117
  store ptr %36, ptr %6, align 8
  store i32 1, ptr %14, align 4
  br label %89

37:                                               ; preds = %5
  %38 = load float, ptr %13, align 4, !tbaa !67
  %39 = load ptr, ptr %12, align 8, !tbaa !117
  %40 = getelementptr inbounds nuw %struct.stbtt__active_edge, ptr %39, i32 0, i32 2
  store float %38, ptr %40, align 4, !tbaa !124
  %41 = load float, ptr %13, align 4, !tbaa !67
  %42 = fcmp une float %41, 0.000000e+00
  br i1 %42, label %43, label %46

43:                                               ; preds = %37
  %44 = load float, ptr %13, align 4, !tbaa !67
  %45 = fdiv float 1.000000e+00, %44
  br label %47

46:                                               ; preds = %37
  br label %47

47:                                               ; preds = %46, %43
  %48 = phi float [ %45, %43 ], [ 0.000000e+00, %46 ]
  %49 = load ptr, ptr %12, align 8, !tbaa !117
  %50 = getelementptr inbounds nuw %struct.stbtt__active_edge, ptr %49, i32 0, i32 3
  store float %48, ptr %50, align 8, !tbaa !126
  %51 = load ptr, ptr %8, align 8, !tbaa !115
  %52 = getelementptr inbounds nuw %struct.stbtt__edge, ptr %51, i32 0, i32 0
  %53 = load float, ptr %52, align 4, !tbaa !121
  %54 = load float, ptr %13, align 4, !tbaa !67
  %55 = load float, ptr %10, align 4, !tbaa !67
  %56 = load ptr, ptr %8, align 8, !tbaa !115
  %57 = getelementptr inbounds nuw %struct.stbtt__edge, ptr %56, i32 0, i32 1
  %58 = load float, ptr %57, align 4, !tbaa !123
  %59 = fsub float %55, %58
  %60 = call float @llvm.fmuladd.f32(float %54, float %59, float %53)
  %61 = load ptr, ptr %12, align 8, !tbaa !117
  %62 = getelementptr inbounds nuw %struct.stbtt__active_edge, ptr %61, i32 0, i32 1
  store float %60, ptr %62, align 8, !tbaa !127
  %63 = load i32, ptr %9, align 4, !tbaa !14
  %64 = sitofp i32 %63 to float
  %65 = load ptr, ptr %12, align 8, !tbaa !117
  %66 = getelementptr inbounds nuw %struct.stbtt__active_edge, ptr %65, i32 0, i32 1
  %67 = load float, ptr %66, align 8, !tbaa !127
  %68 = fsub float %67, %64
  store float %68, ptr %66, align 8, !tbaa !127
  %69 = load ptr, ptr %8, align 8, !tbaa !115
  %70 = getelementptr inbounds nuw %struct.stbtt__edge, ptr %69, i32 0, i32 4
  %71 = load i32, ptr %70, align 4, !tbaa !128
  %72 = icmp ne i32 %71, 0
  %73 = select i1 %72, float 1.000000e+00, float -1.000000e+00
  %74 = load ptr, ptr %12, align 8, !tbaa !117
  %75 = getelementptr inbounds nuw %struct.stbtt__active_edge, ptr %74, i32 0, i32 4
  store float %73, ptr %75, align 4, !tbaa !129
  %76 = load ptr, ptr %8, align 8, !tbaa !115
  %77 = getelementptr inbounds nuw %struct.stbtt__edge, ptr %76, i32 0, i32 1
  %78 = load float, ptr %77, align 4, !tbaa !123
  %79 = load ptr, ptr %12, align 8, !tbaa !117
  %80 = getelementptr inbounds nuw %struct.stbtt__active_edge, ptr %79, i32 0, i32 5
  store float %78, ptr %80, align 8, !tbaa !130
  %81 = load ptr, ptr %8, align 8, !tbaa !115
  %82 = getelementptr inbounds nuw %struct.stbtt__edge, ptr %81, i32 0, i32 3
  %83 = load float, ptr %82, align 4, !tbaa !122
  %84 = load ptr, ptr %12, align 8, !tbaa !117
  %85 = getelementptr inbounds nuw %struct.stbtt__active_edge, ptr %84, i32 0, i32 6
  store float %83, ptr %85, align 4, !tbaa !131
  %86 = load ptr, ptr %12, align 8, !tbaa !117
  %87 = getelementptr inbounds nuw %struct.stbtt__active_edge, ptr %86, i32 0, i32 0
  store ptr null, ptr %87, align 8, !tbaa !132
  %88 = load ptr, ptr %12, align 8, !tbaa !117
  store ptr %88, ptr %6, align 8
  store i32 1, ptr %14, align 4
  br label %89

89:                                               ; preds = %47, %35
  call void @llvm.lifetime.end.p0(i64 4, ptr %13) #8
  call void @llvm.lifetime.end.p0(i64 8, ptr %12) #8
  %90 = load ptr, ptr %6, align 8
  ret ptr %90
}