; Function Attrs: mustprogress nofree nounwind willreturn uwtable
define ptr @stbtt__new_active(ptr noundef captures(none) %0, ptr noundef readonly captures(none) %1, i32 noundef %2, float noundef %3, ptr noundef readnone captures(none) %4) local_unnamed_addr #21 {
  %6 = getelementptr inbounds nuw i8, ptr %0, i64 8
  %7 = load ptr, ptr %6, align 8, !tbaa !92
  %.not.i = icmp eq ptr %7, null
  br i1 %.not.i, label %10, label %8

8:                                                ; preds = %5
  %9 = load ptr, ptr %7, align 8, !tbaa !43
  store ptr %9, ptr %6, align 8, !tbaa !92
  br label %26

10:                                               ; preds = %5
  %11 = getelementptr inbounds nuw i8, ptr %0, i64 16
  %12 = load i32, ptr %11, align 8, !tbaa !95
  %13 = icmp eq i32 %12, 0
  br i1 %13, label %15, label %._crit_edge.i

._crit_edge.i:                                    ; preds = %10
  %.pre.i = load ptr, ptr %0, align 8, !tbaa !96
  %14 = add nsw i32 %12, -1
  br label %19

15:                                               ; preds = %10
  %16 = tail call noalias dereferenceable_or_null(25608) ptr @malloc(i64 noundef 25608) #33
  %17 = icmp eq ptr %16, null
  br i1 %17, label %stbtt__hheap_alloc.exit, label %.thread.i

.thread.i:                                        ; preds = %15
  %18 = load ptr, ptr %0, align 8, !tbaa !96
  store ptr %18, ptr %16, align 8, !tbaa !97
  store ptr %16, ptr %0, align 8, !tbaa !96
  br label %19

19:                                               ; preds = %.thread.i, %._crit_edge.i
  %20 = phi ptr [ %16, %.thread.i ], [ %.pre.i, %._crit_edge.i ]
  %21 = phi i32 [ 799, %.thread.i ], [ %14, %._crit_edge.i ]
  store i32 %21, ptr %11, align 8, !tbaa !95
  %22 = getelementptr inbounds nuw i8, ptr %20, i64 8
  %23 = sext i32 %21 to i64
  %24 = shl nsw i64 %23, 5
  %25 = getelementptr inbounds nuw i8, ptr %22, i64 %24
  br label %26

26:                                               ; preds = %8, %19
  %.022.i.ph = phi ptr [ %25, %19 ], [ %7, %8 ]
  %27 = getelementptr inbounds nuw i8, ptr %1, i64 8
  %28 = load float, ptr %27, align 4, !tbaa !100
  %29 = load float, ptr %1, align 4, !tbaa !102
  %30 = fsub float %28, %29
  %31 = getelementptr inbounds nuw i8, ptr %1, i64 12
  %32 = load float, ptr %31, align 4, !tbaa !103
  %33 = getelementptr inbounds nuw i8, ptr %1, i64 4
  %34 = load float, ptr %33, align 4, !tbaa !104
  %35 = fsub float %32, %34
  %36 = fdiv float %30, %35
  %37 = getelementptr inbounds nuw i8, ptr %.022.i.ph, i64 12
  store float %36, ptr %37, align 4, !tbaa !105
  %38 = fcmp une float %36, 0.000000e+00
  %39 = fdiv float 1.000000e+00, %36
  %40 = select i1 %38, float %39, float 0.000000e+00
  %41 = getelementptr inbounds nuw i8, ptr %.022.i.ph, i64 16
  store float %40, ptr %41, align 8, !tbaa !108
  %42 = fsub float %3, %34
  %43 = tail call float @llvm.fmuladd.f32(float %36, float %42, float %29)
  %44 = getelementptr inbounds nuw i8, ptr %.022.i.ph, i64 8
  %45 = sitofp i32 %2 to float
  %46 = fsub float %43, %45
  store float %46, ptr %44, align 8, !tbaa !109
  %47 = getelementptr inbounds nuw i8, ptr %1, i64 16
  %48 = load i32, ptr %47, align 4, !tbaa !110
  %.not28 = icmp eq i32 %48, 0
  %49 = select i1 %.not28, float -1.000000e+00, float 1.000000e+00
  %50 = getelementptr inbounds nuw i8, ptr %.022.i.ph, i64 20
  store float %49, ptr %50, align 4, !tbaa !111
  %51 = getelementptr inbounds nuw i8, ptr %.022.i.ph, i64 24
  store float %34, ptr %51, align 8, !tbaa !112
  %52 = getelementptr inbounds nuw i8, ptr %.022.i.ph, i64 28
  store float %32, ptr %52, align 4, !tbaa !113
  store ptr null, ptr %.022.i.ph, align 8, !tbaa !114
  br label %stbtt__hheap_alloc.exit

stbtt__hheap_alloc.exit:                          ; preds = %15, %26
  %.022.i32 = phi ptr [ %.022.i.ph, %26 ], [ null, %15 ]
  ret ptr %.022.i32
}